; Function Attrs: mustprogress uwtable
define dso_local noundef zeroext i1 @_ZNK15cmStateSnapshot13IsInitializedERKNSt7__cxx1112basic_stringIcSt11char_traitsIcESaIcEEE(ptr noundef nonnull readonly align 8 captures(none) dereferenceable(24) %0, ptr noundef nonnull align 8 dereferenceable(32) %1) local_unnamed_addr #4 align 2 {
  %3 = getelementptr inbounds nuw i8, ptr %0, i64 8
  %4 = load ptr, ptr %3, align 8
  %5 = getelementptr inbounds nuw i8, ptr %0, i64 16
  %6 = load i64, ptr %5, align 8
  %7 = load ptr, ptr %4, align 8
  %8 = getelementptr %"struct.cmStateDetail::SnapshotDataType", ptr %7, i64 %6
  %9 = getelementptr i8, ptr %8, i64 -88
  %.sroa.01.0.copyload = load ptr, ptr %9, align 8
  %.sroa.22.0..sroa_idx = getelementptr i8, ptr %8, i64 -80
  %.sroa.22.0.copyload = load i64, ptr %.sroa.22.0..sroa_idx, align 8
  %10 = getelementptr i8, ptr %8, i64 -72
  %.sroa.0.0.copyload = load ptr, ptr %10, align 8
  %.sroa.2.0..sroa_idx = getelementptr i8, ptr %8, i64 -64
  %.sroa.2.0.copyload = load i64, ptr %.sroa.2.0..sroa_idx, align 8
  %11 = tail call noundef zeroext i1 @_ZN13cmDefinitions6HasKeyERKNSt7__cxx1112basic_stringIcSt11char_traitsIcESaIcEEEN12cmLinkedTreeIS_E8iteratorESA_(ptr noundef nonnull align 8 dereferenceable(32) %1, ptr %.sroa.01.0.copyload, i64 %.sroa.22.0.copyload, ptr %.sroa.0.0.copyload, i64 %.sroa.2.0.copyload)
  ret i1 %11
}